; Function Attrs: nounwind uwtable
define hidden ptr @lexbor_avl_node_make(ptr nocapture noundef readonly %0, i64 noundef %1, ptr noundef %2) local_unnamed_addr #0 {
  %4 = load ptr, ptr %0, align 8
  %5 = tail call ptr @lexbor_dobject_calloc(ptr noundef %4) #8
  %6 = icmp eq ptr %5, null
  br i1 %6, label %9, label %7

7:                                                ; preds = %3
  store i64 %1, ptr %5, align 8
  %8 = getelementptr inbounds i8, ptr %5, i64 16
  store ptr %2, ptr %8, align 8
  br label %9

9:                                                ; preds = %3, %7
  ret ptr %5
}